target datalayout = "e-m:e-p270:32:32-p271:32:32-p272:64:64-i64:64-i128:128-f80:128-n8:16:32:64-S128"
target triple = "x86_64-pc-linux-gnu"

%struct.lv_style_t = type { ptr, i32, i8 }
%struct.lv_color_t = type { i8, i8, i8 }

@spinbox_ctrl_create.btn_style = internal global %struct.lv_style_t zeroinitializer, align 8
@.str.15 = private unnamed_addr constant [2 x i8] c"-\00", align 1
@.str.16 = private unnamed_addr constant [2 x i8] c"+\00", align 1

; Function Attrs: nounwind uwtable
define internal ptr @spinbox_ctrl_create(ptr noundef %0, i8 noundef zeroext %1, ptr noundef %2) #0 {
  %4 = alloca ptr, align 8
  %5 = alloca i8, align 1
  %6 = alloca ptr, align 8
  %7 = alloca ptr, align 8
  %8 = alloca ptr, align 8
  %9 = alloca ptr, align 8
  %10 = alloca %struct.lv_color_t, align 1
  %11 = alloca i24, align 4
  %12 = alloca %struct.lv_color_t, align 1
  %13 = alloca i24, align 4
  %14 = alloca %struct.lv_color_t, align 1
  %15 = alloca i24, align 4
  %16 = alloca %struct.lv_color_t, align 1
  %17 = alloca i24, align 4
  %18 = alloca ptr, align 8
  %19 = alloca ptr, align 8
  %20 = alloca %struct.lv_color_t, align 1
  %21 = alloca i24, align 4
  %22 = alloca ptr, align 8
  store ptr %0, ptr %4, align 8, !tbaa !3
  store i8 %1, ptr %5, align 1, !tbaa !41
  store ptr %2, ptr %6, align 8, !tbaa !3
  call void @llvm.lifetime.start.p0(i64 8, ptr %7) #5
  %23 = load ptr, ptr %4, align 8, !tbaa !3
  store ptr %23, ptr %7, align 8, !tbaa !3
  call void @llvm.lifetime.start.p0(i64 8, ptr %8) #5
  call void @llvm.lifetime.start.p0(i64 8, ptr %9) #5
  %24 = load ptr, ptr %7, align 8, !tbaa !3
  %25 = call ptr @lv_obj_create(ptr noundef %24)
  store ptr %25, ptr %9, align 8, !tbaa !3
  %26 = load ptr, ptr %6, align 8, !tbaa !3
  %27 = icmp ne ptr %26, null
  br i1 %27, label %28, label %31

28:                                               ; preds = %3
  %29 = load ptr, ptr %9, align 8, !tbaa !3
  %30 = load ptr, ptr %6, align 8, !tbaa !3
  store ptr %29, ptr %30, align 8, !tbaa !3
  br label %31

31:                                               ; preds = %28, %3
  %32 = load ptr, ptr %9, align 8, !tbaa !3
  call void @lv_obj_remove_style_all(ptr noundef %32)
  %33 = load ptr, ptr %9, align 8, !tbaa !3
  call void @lv_obj_set_height(ptr noundef %33, i32 noundef 1073741823)
  %34 = load ptr, ptr %9, align 8, !tbaa !3
  call void @lv_obj_set_flex_grow(ptr noundef %34, i8 noundef zeroext 1)
  %35 = load ptr, ptr %9, align 8, !tbaa !3
  call void @lv_obj_set_style_radius(ptr noundef %35, i32 noundef 5, i32 noundef 0)
  %36 = load ptr, ptr %9, align 8, !tbaa !3
  call void @lv_obj_set_style_clip_corner(ptr noundef %36, i1 noundef zeroext true, i32 noundef 0)
  %37 = load ptr, ptr %9, align 8, !tbaa !3
  call void @lv_obj_set_style_outline_width(ptr noundef %37, i32 noundef 2, i32 noundef 0)
  %38 = load ptr, ptr %9, align 8, !tbaa !3
  %39 = call i24 @lv_color_hex3(i32 noundef 3549)
  store i24 %39, ptr %10, align 1
  call void @llvm.memcpy.p0.p0.i64(ptr align 4 %11, ptr align 1 %10, i64 3, i1 false)
  %40 = load i24, ptr %11, align 4
  call void @lv_obj_set_style_outline_color(ptr noundef %38, i24 %40, i32 noundef 0)
  %41 = load ptr, ptr %9, align 8, !tbaa !3
  call void @lv_obj_set_flex_flow(ptr noundef %41, i32 noundef 0)
  %42 = load ptr, ptr %9, align 8, !tbaa !3
  call void @lv_obj_set_style_flex_main_place(ptr noundef %42, i32 noundef 2, i32 noundef 0)
  %43 = load i8, ptr getelementptr inbounds nuw (%struct.lv_style_t, ptr @spinbox_ctrl_create.btn_style, i32 0, i32 2), align 4, !tbaa !42
  %44 = zext i8 %43 to i32
  %45 = icmp slt i32 %44, 1
  br i1 %45, label %46, label %54

46:                                               ; preds = %31
  call void @lv_style_init(ptr noundef @spinbox_ctrl_create.btn_style)
  call void @lv_style_set_radius(ptr noundef @spinbox_ctrl_create.btn_style, i32 noundef 0)
  call void @lv_style_set_outline_width(ptr noundef @spinbox_ctrl_create.btn_style, i32 noundef 1)
  call void @lv_style_set_outline_pad(ptr noundef @spinbox_ctrl_create.btn_style, i32 noundef 1)
  %47 = call i24 @lv_color_hex3(i32 noundef 3549)
  store i24 %47, ptr %12, align 1
  call void @llvm.memcpy.p0.p0.i64(ptr align 4 %13, ptr align 1 %12, i64 3, i1 false)
  %48 = load i24, ptr %13, align 4
  call void @lv_style_set_outline_color(ptr noundef @spinbox_ctrl_create.btn_style, i24 %48)
  call void @lv_style_set_shadow_width(ptr noundef @spinbox_ctrl_create.btn_style, i32 noundef 0)
  %49 = call i24 @lv_color_white()
  store i24 %49, ptr %14, align 1
  call void @llvm.memcpy.p0.p0.i64(ptr align 4 %15, ptr align 1 %14, i64 3, i1 false)
  %50 = load i24, ptr %15, align 4
  call void @lv_style_set_bg_color(ptr noundef @spinbox_ctrl_create.btn_style, i24 %50)
  %51 = load ptr, ptr %4, align 8, !tbaa !3
  %52 = call i24 @lv_theme_get_color_primary(ptr noundef %51)
  store i24 %52, ptr %16, align 1
  call void @llvm.memcpy.p0.p0.i64(ptr align 4 %17, ptr align 1 %16, i64 3, i1 false)
  %53 = load i24, ptr %17, align 4
  call void @lv_style_set_text_color(ptr noundef @spinbox_ctrl_create.btn_style, i24 %53)
  br label %54

54:                                               ; preds = %46, %31
  call void @llvm.lifetime.start.p0(i64 8, ptr %18) #5
  %55 = load ptr, ptr %9, align 8, !tbaa !3
  %56 = call ptr @lv_button_create(ptr noundef %55)
  store ptr %56, ptr %18, align 8, !tbaa !3
  %57 = load ptr, ptr %18, align 8, !tbaa !3
  call void @lv_obj_set_width(ptr noundef %57, i32 noundef 30)
  %58 = load ptr, ptr %18, align 8, !tbaa !3
  call void @lv_obj_add_style(ptr noundef %58, ptr noundef @spinbox_ctrl_create.btn_style, i32 noundef 0)
  %59 = load ptr, ptr %18, align 8, !tbaa !3
  %60 = call ptr @lv_label_create(ptr noundef %59)
  store ptr %60, ptr %8, align 8, !tbaa !3
  %61 = load ptr, ptr %8, align 8, !tbaa !3
  call void @lv_label_set_text(ptr noundef %61, ptr noundef @.str.15)
  %62 = load ptr, ptr %8, align 8, !tbaa !3
  call void @lv_obj_center(ptr noundef %62)
  call void @llvm.lifetime.start.p0(i64 8, ptr %19) #5
  %63 = load ptr, ptr %9, align 8, !tbaa !3
  %64 = call ptr @lv_spinbox_create(ptr noundef %63)
  store ptr %64, ptr %19, align 8, !tbaa !3
  %65 = load ptr, ptr %19, align 8, !tbaa !3
  call void @lv_obj_set_flex_grow(ptr noundef %65, i8 noundef zeroext 1)
  %66 = load ptr, ptr %19, align 8, !tbaa !3
  call void @lv_obj_set_style_shadow_width(ptr noundef %66, i32 noundef 0, i32 noundef 0)
  %67 = load ptr, ptr %19, align 8, !tbaa !3
  call void @lv_obj_set_style_border_width(ptr noundef %67, i32 noundef 0, i32 noundef 0)
  %68 = load ptr, ptr %19, align 8, !tbaa !3
  call void @lv_obj_set_style_outline_width(ptr noundef %68, i32 noundef 1, i32 noundef 0)
  %69 = load ptr, ptr %19, align 8, !tbaa !3
  call void @lv_obj_set_style_outline_pad(ptr noundef %69, i32 noundef 1, i32 noundef 0)
  %70 = load ptr, ptr %19, align 8, !tbaa !3
  %71 = call i24 @lv_color_hex3(i32 noundef 3549)
  store i24 %71, ptr %20, align 1
  call void @llvm.memcpy.p0.p0.i64(ptr align 4 %21, ptr align 1 %20, i64 3, i1 false)
  %72 = load i24, ptr %21, align 4
  call void @lv_obj_set_style_outline_color(ptr noundef %70, i24 %72, i32 noundef 0)
  %73 = load ptr, ptr %19, align 8, !tbaa !3
  call void @lv_obj_set_style_radius(ptr noundef %73, i32 noundef 0, i32 noundef 0)
  %74 = load ptr, ptr %19, align 8, !tbaa !3
  %75 = load i8, ptr %5, align 1, !tbaa !41
  %76 = zext i8 %75 to i64
  %77 = inttoptr i64 %76 to ptr
  call void @lv_obj_set_user_data(ptr noundef %74, ptr noundef %77)
  %78 = load ptr, ptr %19, align 8, !tbaa !3
  call void @lv_spinbox_set_range(ptr noundef %78, i32 noundef -536870911, i32 noundef 536870911)
  %79 = load ptr, ptr %19, align 8, !tbaa !3
  call void @lv_spinbox_set_digit_format(ptr noundef %79, i32 noundef 3, i32 noundef 0)
  %80 = load ptr, ptr %19, align 8, !tbaa !3
  call void @lv_spinbox_step_prev(ptr noundef %80)
  call void @llvm.lifetime.start.p0(i64 8, ptr %22) #5
  %81 = load ptr, ptr %9, align 8, !tbaa !3
  %82 = call ptr @lv_button_create(ptr noundef %81)
  store ptr %82, ptr %22, align 8, !tbaa !3
  %83 = load ptr, ptr %22, align 8, !tbaa !3
  call void @lv_obj_set_width(ptr noundef %83, i32 noundef 30)
  %84 = load ptr, ptr %22, align 8, !tbaa !3
  call void @lv_obj_add_style(ptr noundef %84, ptr noundef @spinbox_ctrl_create.btn_style, i32 noundef 0)
  %85 = load ptr, ptr %22, align 8, !tbaa !3
  %86 = call ptr @lv_label_create(ptr noundef %85)
  store ptr %86, ptr %8, align 8, !tbaa !3
  %87 = load ptr, ptr %8, align 8, !tbaa !3
  call void @lv_label_set_text(ptr noundef %87, ptr noundef @.str.16)
  %88 = load ptr, ptr %8, align 8, !tbaa !3
  call void @lv_obj_center(ptr noundef %88)
  %89 = load ptr, ptr %22, align 8, !tbaa !3
  %90 = load ptr, ptr %19, align 8, !tbaa !3
  %91 = call ptr @lv_obj_add_event_cb(ptr noundef %89, ptr noundef @btn_inc_event_handler, i32 noundef 0, ptr noundef %90)
  %92 = load ptr, ptr %18, align 8, !tbaa !3
  %93 = load ptr, ptr %19, align 8, !tbaa !3
  %94 = call ptr @lv_obj_add_event_cb(ptr noundef %92, ptr noundef @btn_dec_event_handler, i32 noundef 0, ptr noundef %93)
  %95 = load ptr, ptr %19, align 8, !tbaa !3
  call void @llvm.lifetime.end.p0(i64 8, ptr %22) #5
  call void @llvm.lifetime.end.p0(i64 8, ptr %19) #5
  call void @llvm.lifetime.end.p0(i64 8, ptr %18) #5
  call void @llvm.lifetime.end.p0(i64 8, ptr %9) #5
  call void @llvm.lifetime.end.p0(i64 8, ptr %8) #5
  call void @llvm.lifetime.end.p0(i64 8, ptr %7) #5
  ret ptr %95
}