; Function Attrs: nounwind uwtable
define internal fastcc noundef ptr @spinbox_ctrl_create(ptr noundef %0, i8 noundef zeroext range(i8 1, -126) %1, ptr noundef writeonly %2) unnamed_addr #0 {
  %4 = tail call ptr @lv_obj_create(ptr noundef %0) #3
  %.not = icmp eq ptr %2, null
  br i1 %.not, label %6, label %5

5:                                                ; preds = %3
  store ptr %4, ptr %2, align 8, !tbaa !33
  br label %6

6:                                                ; preds = %5, %3
  tail call void @lv_obj_remove_style_all(ptr noundef %4) #3
  tail call void @lv_obj_set_height(ptr noundef %4, i32 noundef 1073741823) #3
  tail call void @lv_obj_set_flex_grow(ptr noundef %4, i8 noundef zeroext 1) #3
  tail call void @lv_obj_set_style_radius(ptr noundef %4, i32 noundef 5, i32 noundef 0) #3
  tail call void @lv_obj_set_style_clip_corner(ptr noundef %4, i1 noundef zeroext true, i32 noundef 0) #3
  tail call void @lv_obj_set_style_outline_width(ptr noundef %4, i32 noundef 2, i32 noundef 0) #3
  %7 = tail call i24 @lv_color_hex3(i32 noundef 3549) #3
  tail call void @lv_obj_set_style_outline_color(ptr noundef %4, i24 %7, i32 noundef 0) #3
  tail call void @lv_obj_set_flex_flow(ptr noundef %4, i32 noundef 0) #3
  tail call void @lv_obj_set_style_flex_main_place(ptr noundef %4, i32 noundef 2, i32 noundef 0) #3
  %8 = load i8, ptr getelementptr inbounds nuw (i8, ptr @spinbox_ctrl_create.btn_style, i64 12), align 4, !tbaa !40
  %9 = icmp eq i8 %8, 0
  br i1 %9, label %10, label %14

10:                                               ; preds = %6
  tail call void @lv_style_init(ptr noundef nonnull @spinbox_ctrl_create.btn_style) #3
  tail call void @lv_style_set_radius(ptr noundef nonnull @spinbox_ctrl_create.btn_style, i32 noundef 0) #3
  tail call void @lv_style_set_outline_width(ptr noundef nonnull @spinbox_ctrl_create.btn_style, i32 noundef 1) #3
  tail call void @lv_style_set_outline_pad(ptr noundef nonnull @spinbox_ctrl_create.btn_style, i32 noundef 1) #3
  %11 = tail call i24 @lv_color_hex3(i32 noundef 3549) #3
  tail call void @lv_style_set_outline_color(ptr noundef nonnull @spinbox_ctrl_create.btn_style, i24 %11) #3
  tail call void @lv_style_set_shadow_width(ptr noundef nonnull @spinbox_ctrl_create.btn_style, i32 noundef 0) #3
  %12 = tail call i24 @lv_color_white() #3
  tail call void @lv_style_set_bg_color(ptr noundef nonnull @spinbox_ctrl_create.btn_style, i24 %12) #3
  %13 = tail call i24 @lv_theme_get_color_primary(ptr noundef %0) #3
  tail call void @lv_style_set_text_color(ptr noundef nonnull @spinbox_ctrl_create.btn_style, i24 %13) #3
  br label %14

14:                                               ; preds = %10, %6
  %15 = tail call ptr @lv_button_create(ptr noundef %4) #3
  tail call void @lv_obj_set_width(ptr noundef %15, i32 noundef 30) #3
  tail call void @lv_obj_add_style(ptr noundef %15, ptr noundef nonnull @spinbox_ctrl_create.btn_style, i32 noundef 0) #3
  %16 = tail call ptr @lv_label_create(ptr noundef %15) #3
  tail call void @lv_label_set_text(ptr noundef %16, ptr noundef nonnull @.str.15) #3
  tail call void @lv_obj_center(ptr noundef %16) #3
  %17 = tail call ptr @lv_spinbox_create(ptr noundef %4) #3
  tail call void @lv_obj_set_flex_grow(ptr noundef %17, i8 noundef zeroext 1) #3
  tail call void @lv_obj_set_style_shadow_width(ptr noundef %17, i32 noundef 0, i32 noundef 0) #3
  tail call void @lv_obj_set_style_border_width(ptr noundef %17, i32 noundef 0, i32 noundef 0) #3
  tail call void @lv_obj_set_style_outline_width(ptr noundef %17, i32 noundef 1, i32 noundef 0) #3
  tail call void @lv_obj_set_style_outline_pad(ptr noundef %17, i32 noundef 1, i32 noundef 0) #3
  %18 = tail call i24 @lv_color_hex3(i32 noundef 3549) #3
  tail call void @lv_obj_set_style_outline_color(ptr noundef %17, i24 %18, i32 noundef 0) #3
  tail call void @lv_obj_set_style_radius(ptr noundef %17, i32 noundef 0, i32 noundef 0) #3
  %19 = zext i8 %1 to i64
  %20 = inttoptr i64 %19 to ptr
  tail call void @lv_obj_set_user_data(ptr noundef %17, ptr noundef nonnull %20) #3
  tail call void @lv_spinbox_set_range(ptr noundef %17, i32 noundef -536870911, i32 noundef 536870911) #3
  tail call void @lv_spinbox_set_digit_format(ptr noundef %17, i32 noundef 3, i32 noundef 0) #3
  tail call void @lv_spinbox_step_prev(ptr noundef %17) #3
  %21 = tail call ptr @lv_button_create(ptr noundef %4) #3
  tail call void @lv_obj_set_width(ptr noundef %21, i32 noundef 30) #3
  tail call void @lv_obj_add_style(ptr noundef %21, ptr noundef nonnull @spinbox_ctrl_create.btn_style, i32 noundef 0) #3
  %22 = tail call ptr @lv_label_create(ptr noundef %21) #3
  tail call void @lv_label_set_text(ptr noundef %22, ptr noundef nonnull @.str.16) #3
  tail call void @lv_obj_center(ptr noundef %22) #3
  %23 = tail call ptr @lv_obj_add_event_cb(ptr noundef %21, ptr noundef nonnull @btn_inc_event_handler, i32 noundef 0, ptr noundef %17) #3
  %24 = tail call ptr @lv_obj_add_event_cb(ptr noundef %15, ptr noundef nonnull @btn_dec_event_handler, i32 noundef 0, ptr noundef %17) #3
  ret ptr %17
}